target datalayout = "e-m:e-p270:32:32-p271:32:32-p272:64:64-i64:64-i128:128-f80:128-n8:16:32:64-S128"
target triple = "x86_64-pc-linux-gnu"

@test_title = internal global ptr null, align 8

; Function Attrs: nounwind uwtable
define void @set_test_title(ptr noundef %0) #0 {
  %2 = alloca ptr, align 8
  store ptr %0, ptr %2, align 8, !tbaa !3
  %3 = load ptr, ptr @test_title, align 8, !tbaa !3
  call void @free(ptr noundef %3) #7
  %4 = load ptr, ptr %2, align 8, !tbaa !3
  %5 = icmp eq ptr %4, null
  br i1 %5, label %6, label %7

6:                                                ; preds = %1
  br label %10

7:                                                ; preds = %1
  %8 = load ptr, ptr %2, align 8, !tbaa !3
  %9 = call noalias ptr @strdup(ptr noundef %8) #7
  br label %10

10:                                               ; preds = %7, %6
  %11 = phi ptr [ null, %6 ], [ %9, %7 ]
  store ptr %11, ptr @test_title, align 8, !tbaa !3
  ret void
}