; Function Attrs: mustprogress nounwind willreturn uwtable
define void @set_test_title(ptr noundef readonly captures(address_is_null) %0) local_unnamed_addr #5 {
  %2 = load ptr, ptr @test_title, align 8, !tbaa !14
  tail call void @free(ptr noundef %2) #13
  %3 = icmp eq ptr %0, null
  br i1 %3, label %6, label %4

4:                                                ; preds = %1
  %5 = tail call noalias ptr @strdup(ptr noundef nonnull %0) #13
  br label %6

6:                                                ; preds = %1, %4
  %7 = phi ptr [ %5, %4 ], [ null, %1 ]
  store ptr %7, ptr @test_title, align 8, !tbaa !14
  ret void
}